; Function Attrs: mustprogress nounwind uwtable
define hidden noundef zeroext i1 @_ZN14LibraryCallKit21inline_math_addExactLEb(ptr noundef nonnull align 8 dereferenceable(108) %0, i1 noundef zeroext %1) local_unnamed_addr #0 align 2 {
  %3 = getelementptr inbounds i8, ptr %0, i64 40
  %4 = load ptr, ptr %3, align 8
  %5 = getelementptr inbounds i8, ptr %4, i64 56
  %6 = load ptr, ptr %5, align 8
  %7 = getelementptr inbounds i8, ptr %6, i64 16
  %8 = load i32, ptr %7, align 8
  %9 = getelementptr inbounds i8, ptr %6, i64 32
  %10 = load i32, ptr %9, align 8
  %11 = add i32 %10, %8
  %12 = getelementptr inbounds i8, ptr %4, i64 8
  %13 = load ptr, ptr %12, align 8
  %14 = zext i32 %11 to i64
  %15 = getelementptr inbounds ptr, ptr %13, i64 %14
  %16 = load ptr, ptr %15, align 8
  br i1 %1, label %17, label %21

17:                                               ; preds = %2
  %18 = getelementptr inbounds i8, ptr %0, i64 32
  %19 = load ptr, ptr %18, align 8
  %20 = tail call noundef ptr @_ZN11PhaseValues7longconEl(ptr noundef nonnull align 8 dereferenceable(2400) %19, i64 noundef 1) #13
  br label %26

21:                                               ; preds = %2
  %22 = add i32 %11, 2
  %23 = zext i32 %22 to i64
  %24 = getelementptr inbounds ptr, ptr %13, i64 %23
  %25 = load ptr, ptr %24, align 8
  br label %26

26:                                               ; preds = %21, %17
  %27 = phi ptr [ %20, %17 ], [ %25, %21 ]
  %28 = tail call noundef zeroext i1 @_ZN14LibraryCallKit20inline_math_overflowI16OverflowAddLNodeEEbP4NodeS3_(ptr noundef nonnull align 8 dereferenceable(108) %0, ptr noundef %16, ptr noundef %27)
  ret i1 %28
}